target datalayout = "e-m:e-p270:32:32-p271:32:32-p272:64:64-i64:64-i128:128-f80:128-n8:16:32:64-S128"
target triple = "x86_64-pc-linux-gnu"

%"class.google::protobuf::internal::LogMessage" = type { i32, ptr, i32, %"class.std::__cxx11::basic_string" }
%"class.std::__cxx11::basic_string" = type { %"struct.std::__cxx11::basic_string<char>::_Alloc_hider", i64, %union.anon.0 }
%"struct.std::__cxx11::basic_string<char>::_Alloc_hider" = type { ptr }
%union.anon.0 = type { i64, [8 x i8] }
%"class.google::protobuf::internal::LogFinisher" = type { i8 }
%"struct.google::protobuf::internal::ExtensionInfo" = type { i8, i8, i8, %union.anon, ptr }
%union.anon = type { %"struct.google::protobuf::internal::ExtensionInfo::EnumValidityCheck" }
%"struct.google::protobuf::internal::ExtensionInfo::EnumValidityCheck" = type { ptr, ptr }

@.str = private unnamed_addr constant [43 x i8] c"third_party/protobuf-lite/extension_set.cc\00", align 1
@.str.4 = private unnamed_addr constant [54 x i8] c"CHECK failed: (type) == (WireFormatLite::TYPE_ENUM): \00", align 1

; Function Attrs: mustprogress nounwind uwtable
define linkonce_odr void @_ZN6google8protobuf8internal13ExtensionInfoC2Ehbb(ptr noundef nonnull align 8 dereferenceable(32) %0, i8 noundef zeroext %1, i1 noundef zeroext %2, i1 noundef zeroext %3) unnamed_addr #4 comdat align 2 {
  %5 = alloca ptr, align 8
  %6 = alloca i8, align 1
  %7 = alloca i8, align 1
  %8 = alloca i8, align 1
  store ptr %0, ptr %5, align 8
  store i8 %1, ptr %6, align 1
  %9 = zext i1 %2 to i8
  store i8 %9, ptr %7, align 1
  %10 = zext i1 %3 to i8
  store i8 %10, ptr %8, align 1
  %11 = load ptr, ptr %5, align 8
  %12 = getelementptr inbounds %"struct.google::protobuf::internal::ExtensionInfo", ptr %11, i32 0, i32 0
  %13 = load i8, ptr %6, align 1
  store i8 %13, ptr %12, align 8
  %14 = getelementptr inbounds %"struct.google::protobuf::internal::ExtensionInfo", ptr %11, i32 0, i32 1
  %15 = load i8, ptr %7, align 1
  %16 = trunc i8 %15 to i1
  %17 = zext i1 %16 to i8
  store i8 %17, ptr %14, align 1
  %18 = getelementptr inbounds %"struct.google::protobuf::internal::ExtensionInfo", ptr %11, i32 0, i32 2
  %19 = load i8, ptr %8, align 1
  %20 = trunc i8 %19 to i1
  %21 = zext i1 %20 to i8
  store i8 %21, ptr %18, align 2
  %22 = getelementptr inbounds %"struct.google::protobuf::internal::ExtensionInfo", ptr %11, i32 0, i32 4
  store ptr null, ptr %22, align 8
  ret void
}

; Function Attrs: mustprogress uwtable
define void @_ZN6google8protobuf8internal12ExtensionSet21RegisterEnumExtensionEPKNS0_11MessageLiteEihbbPFbiE(ptr noundef %0, i32 noundef %1, i8 noundef zeroext %2, i1 noundef zeroext %3, i1 noundef zeroext %4, ptr noundef %5) #6 align 2 personality ptr @__gxx_personality_v0 {
  %7 = alloca ptr, align 8
  %8 = alloca i32, align 4
  %9 = alloca i8, align 1
  %10 = alloca i8, align 1
  %11 = alloca i8, align 1
  %12 = alloca ptr, align 8
  %13 = alloca %"class.google::protobuf::internal::LogMessage", align 8
  %14 = alloca i1, align 1
  %15 = alloca ptr, align 8
  %16 = alloca i32, align 4
  %17 = alloca %"class.google::protobuf::internal::LogFinisher", align 1
  %18 = alloca %"struct.google::protobuf::internal::ExtensionInfo", align 8
  %19 = alloca %"struct.google::protobuf::internal::ExtensionInfo", align 8
  store ptr %0, ptr %7, align 8
  store i32 %1, ptr %8, align 4
  store i8 %2, ptr %9, align 1
  %20 = zext i1 %3 to i8
  store i8 %20, ptr %10, align 1
  %21 = zext i1 %4 to i8
  store i8 %21, ptr %11, align 1
  store ptr %5, ptr %12, align 8
  %22 = load i8, ptr %9, align 1
  %23 = zext i8 %22 to i32
  %24 = icmp eq i32 %23, 14
  store i1 false, ptr %14, align 1
  br i1 %24, label %25, label %26

25:                                               ; preds = %6
  br label %30

26:                                               ; preds = %6
  call void @_ZN6google8protobuf8internal10LogMessageC1ENS0_8LogLevelEPKci(ptr noundef nonnull align 8 dereferenceable(56) %13, i32 noundef 3, ptr noundef @.str, i32 noundef 164)
  store i1 true, ptr %14, align 1
  %27 = invoke noundef nonnull align 8 dereferenceable(56) ptr @_ZN6google8protobuf8internal10LogMessagelsEPKc(ptr noundef nonnull align 8 dereferenceable(56) %13, ptr noundef @.str.4)
          to label %28 unwind label %46

28:                                               ; preds = %26
  invoke void @_ZN6google8protobuf8internal11LogFinisheraSERNS1_10LogMessageE(ptr noundef nonnull align 1 dereferenceable(1) %17, ptr noundef nonnull align 8 dereferenceable(56) %27)
          to label %29 unwind label %46

29:                                               ; preds = %28
  br label %30

30:                                               ; preds = %29, %25
  %31 = load i1, ptr %14, align 1
  br i1 %31, label %32, label %33

32:                                               ; preds = %30
  call void @_ZN6google8protobuf8internal10LogMessageD1Ev(ptr noundef nonnull align 8 dereferenceable(56) %13) #3
  br label %33

33:                                               ; preds = %32, %30
  %34 = load i8, ptr %9, align 1
  %35 = load i8, ptr %10, align 1
  %36 = trunc i8 %35 to i1
  %37 = load i8, ptr %11, align 1
  %38 = trunc i8 %37 to i1
  call void @_ZN6google8protobuf8internal13ExtensionInfoC2Ehbb(ptr noundef nonnull align 8 dereferenceable(32) %18, i8 noundef zeroext %34, i1 noundef zeroext %36, i1 noundef zeroext %38)
  %39 = getelementptr inbounds %"struct.google::protobuf::internal::ExtensionInfo", ptr %18, i32 0, i32 3
  %40 = getelementptr inbounds %"struct.google::protobuf::internal::ExtensionInfo::EnumValidityCheck", ptr %39, i32 0, i32 0
  store ptr @_ZN6google8protobuf8internalL21CallNoArgValidityFuncEPKvi, ptr %40, align 8
  %41 = load ptr, ptr %12, align 8
  %42 = getelementptr inbounds %"struct.google::protobuf::internal::ExtensionInfo", ptr %18, i32 0, i32 3
  %43 = getelementptr inbounds %"struct.google::protobuf::internal::ExtensionInfo::EnumValidityCheck", ptr %42, i32 0, i32 1
  store ptr %41, ptr %43, align 8
  %44 = load ptr, ptr %7, align 8
  %45 = load i32, ptr %8, align 4
  call void @llvm.memcpy.p0.p0.i64(ptr align 8 %19, ptr align 8 %18, i64 32, i1 false)
  call void @_ZN6google8protobuf8internal12_GLOBAL__N_18RegisterEPKNS0_11MessageLiteEiNS1_13ExtensionInfoE(ptr noundef %44, i32 noundef %45, ptr noundef byval(%"struct.google::protobuf::internal::ExtensionInfo") align 8 %19)
  ret void

46:                                               ; preds = %28, %26
  %47 = landingpad { ptr, i32 }
          cleanup
  %48 = extractvalue { ptr, i32 } %47, 0
  store ptr %48, ptr %15, align 8
  %49 = extractvalue { ptr, i32 } %47, 1
  store i32 %49, ptr %16, align 4
  %50 = load i1, ptr %14, align 1
  br i1 %50, label %51, label %52

51:                                               ; preds = %46
  call void @_ZN6google8protobuf8internal10LogMessageD1Ev(ptr noundef nonnull align 8 dereferenceable(56) %13) #3
  br label %52

52:                                               ; preds = %51, %46
  br label %53

53:                                               ; preds = %52
  %54 = load ptr, ptr %15, align 8
  %55 = load i32, ptr %16, align 4
  %56 = insertvalue { ptr, i32 } poison, ptr %54, 0
  %57 = insertvalue { ptr, i32 } %56, i32 %55, 1
  resume { ptr, i32 } %57
}