; Function Attrs: mustprogress uwtable
define void @_ZN6google8protobuf8internal12ExtensionSet21RegisterEnumExtensionEPKNS0_11MessageLiteEihbbPFbiE(ptr noundef %0, i32 noundef %1, i8 noundef zeroext %2, i1 noundef zeroext %3, i1 noundef zeroext %4, ptr noundef %5) local_unnamed_addr #8 align 2 personality ptr @__gxx_personality_v0 {
  %7 = alloca %"class.google::protobuf::internal::LogMessage", align 8
  %8 = alloca %"class.google::protobuf::internal::LogFinisher", align 1
  %9 = alloca %"struct.google::protobuf::internal::ExtensionInfo", align 8
  %.not = icmp eq i8 %2, 14
  br i1 %.not, label %.critedge, label %10

10:                                               ; preds = %6
  call void @_ZN6google8protobuf8internal10LogMessageC1ENS0_8LogLevelEPKci(ptr noundef nonnull align 8 dereferenceable(56) %7, i32 noundef 3, ptr noundef nonnull @.str, i32 noundef 164)
  %11 = invoke noundef nonnull align 8 dereferenceable(56) ptr @_ZN6google8protobuf8internal10LogMessagelsEPKc(ptr noundef nonnull align 8 dereferenceable(56) %7, ptr noundef nonnull @.str.4)
          to label %12 unwind label %16

12:                                               ; preds = %10
  invoke void @_ZN6google8protobuf8internal11LogFinisheraSERNS1_10LogMessageE(ptr noundef nonnull align 1 dereferenceable(1) %8, ptr noundef nonnull align 8 dereferenceable(56) %11)
          to label %13 unwind label %16

13:                                               ; preds = %12
  call void @_ZN6google8protobuf8internal10LogMessageD1Ev(ptr noundef nonnull align 8 dereferenceable(56) %7) #23
  br label %.critedge

.critedge:                                        ; preds = %6, %13
  %14 = zext i1 %3 to i8
  %15 = zext i1 %4 to i8
  store i8 %2, ptr %9, align 8
  %.sroa.2.0..sroa_idx = getelementptr inbounds i8, ptr %9, i64 1
  store i8 %14, ptr %.sroa.2.0..sroa_idx, align 1
  %.sroa.3.0..sroa_idx = getelementptr inbounds i8, ptr %9, i64 2
  store i8 %15, ptr %.sroa.3.0..sroa_idx, align 2
  %.sroa.410.0..sroa_idx = getelementptr inbounds i8, ptr %9, i64 8
  store ptr @_ZN6google8protobuf8internalL21CallNoArgValidityFuncEPKvi, ptr %.sroa.410.0..sroa_idx, align 8
  %.sroa.5.0..sroa_idx = getelementptr inbounds i8, ptr %9, i64 16
  store ptr %5, ptr %.sroa.5.0..sroa_idx, align 8
  %.sroa.6.0..sroa_idx = getelementptr inbounds i8, ptr %9, i64 24
  store ptr null, ptr %.sroa.6.0..sroa_idx, align 8
  call fastcc void @_ZN6google8protobuf8internal12_GLOBAL__N_18RegisterEPKNS0_11MessageLiteEiNS1_13ExtensionInfoE(ptr noundef %0, i32 noundef %1, ptr noundef nonnull byval(%"struct.google::protobuf::internal::ExtensionInfo") align 8 %9)
  ret void

16:                                               ; preds = %12, %10
  %17 = landingpad { ptr, i32 }
          cleanup
  call void @_ZN6google8protobuf8internal10LogMessageD1Ev(ptr noundef nonnull align 8 dereferenceable(56) %7) #23
  resume { ptr, i32 } %17
}